ARM GAS  C:\msys64\tmp\cc61jqoi.s 			page 1


   1              		.cpu cortex-m4
   2              		.arch armv7e-m
   3              		.fpu fpv4-sp-d16
   4              		.eabi_attribute 27, 1
   5              		.eabi_attribute 28, 1
   6              		.eabi_attribute 20, 1
   7              		.eabi_attribute 21, 1
   8              		.eabi_attribute 23, 3
   9              		.eabi_attribute 24, 1
  10              		.eabi_attribute 25, 1
  11              		.eabi_attribute 26, 1
  12              		.eabi_attribute 30, 1
  13              		.eabi_attribute 34, 1
  14              		.eabi_attribute 18, 4
  15              		.file	"adc.c"
  16              		.text
  17              	.Ltext0:
  18              		.cfi_sections	.debug_frame
  19              		.file 1 "Core/Src/adc.c"
  20              		.section	.text.MX_ADC1_Init,"ax",%progbits
  21              		.align	1
  22              		.global	MX_ADC1_Init
  23              		.syntax unified
  24              		.thumb
  25              		.thumb_func
  27              	MX_ADC1_Init:
  28              	.LFB384:
   1:Core/Src/adc.c **** /* USER CODE BEGIN Header */
   2:Core/Src/adc.c **** /**
   3:Core/Src/adc.c ****   ******************************************************************************
   4:Core/Src/adc.c ****   * @file    adc.c
   5:Core/Src/adc.c ****   * @brief   This file provides code for the configuration
   6:Core/Src/adc.c ****   *          of the ADC instances.
   7:Core/Src/adc.c ****   ******************************************************************************
   8:Core/Src/adc.c ****   * @attention
   9:Core/Src/adc.c ****   *
  10:Core/Src/adc.c ****   * Copyright (c) 2026 STMicroelectronics.
  11:Core/Src/adc.c ****   * All rights reserved.
  12:Core/Src/adc.c ****   *
  13:Core/Src/adc.c ****   * This software is licensed under terms that can be found in the LICENSE file
  14:Core/Src/adc.c ****   * in the root directory of this software component.
  15:Core/Src/adc.c ****   * If no LICENSE file comes with this software, it is provided AS-IS.
  16:Core/Src/adc.c ****   *
  17:Core/Src/adc.c ****   ******************************************************************************
  18:Core/Src/adc.c ****   */
  19:Core/Src/adc.c **** /* USER CODE END Header */
  20:Core/Src/adc.c **** /* Includes ------------------------------------------------------------------*/
  21:Core/Src/adc.c **** #include "adc.h"
  22:Core/Src/adc.c **** 
  23:Core/Src/adc.c **** /* USER CODE BEGIN 0 */
  24:Core/Src/adc.c **** 
  25:Core/Src/adc.c **** /* USER CODE END 0 */
  26:Core/Src/adc.c **** 
  27:Core/Src/adc.c **** ADC_HandleTypeDef hadc1;
  28:Core/Src/adc.c **** 
  29:Core/Src/adc.c **** /* ADC1 init function */
  30:Core/Src/adc.c **** void MX_ADC1_Init(void)
ARM GAS  C:\msys64\tmp\cc61jqoi.s 			page 2


  31:Core/Src/adc.c **** {
  29              		.loc 1 31 1 view -0
  30              		.cfi_startproc
  31              		@ args = 0, pretend = 0, frame = 24
  32              		@ frame_needed = 0, uses_anonymous_args = 0
  33 0000 00B5     		push	{lr}
  34              	.LCFI0:
  35              		.cfi_def_cfa_offset 4
  36              		.cfi_offset 14, -4
  37 0002 87B0     		sub	sp, sp, #28
  38              	.LCFI1:
  39              		.cfi_def_cfa_offset 32
  32:Core/Src/adc.c **** 
  33:Core/Src/adc.c ****   /* USER CODE BEGIN ADC1_Init 0 */
  34:Core/Src/adc.c **** 
  35:Core/Src/adc.c ****   /* USER CODE END ADC1_Init 0 */
  36:Core/Src/adc.c **** 
  37:Core/Src/adc.c ****   ADC_ChannelConfTypeDef sConfig = {0};
  40              		.loc 1 37 3 view .LVU1
  41              		.loc 1 37 26 is_stmt 0 view .LVU2
  42 0004 0023     		movs	r3, #0
  43 0006 0093     		str	r3, [sp]
  44 0008 0193     		str	r3, [sp, #4]
  45 000a 0293     		str	r3, [sp, #8]
  46 000c 0393     		str	r3, [sp, #12]
  47 000e 0493     		str	r3, [sp, #16]
  48 0010 0593     		str	r3, [sp, #20]
  38:Core/Src/adc.c **** 
  39:Core/Src/adc.c ****   /* USER CODE BEGIN ADC1_Init 1 */
  40:Core/Src/adc.c **** 
  41:Core/Src/adc.c ****   /* USER CODE END ADC1_Init 1 */
  42:Core/Src/adc.c **** 
  43:Core/Src/adc.c ****   /** Common config
  44:Core/Src/adc.c ****   */
  45:Core/Src/adc.c ****   hadc1.Instance = ADC1;
  49              		.loc 1 45 3 is_stmt 1 view .LVU3
  50              		.loc 1 45 18 is_stmt 0 view .LVU4
  51 0012 1948     		ldr	r0, .L7
  52 0014 194A     		ldr	r2, .L7+4
  53 0016 0260     		str	r2, [r0]
  46:Core/Src/adc.c ****   hadc1.Init.ClockPrescaler = ADC_CLOCK_ASYNC_DIV1;
  54              		.loc 1 46 3 is_stmt 1 view .LVU5
  55              		.loc 1 46 29 is_stmt 0 view .LVU6
  56 0018 4360     		str	r3, [r0, #4]
  47:Core/Src/adc.c ****   hadc1.Init.Resolution = ADC_RESOLUTION_12B;
  57              		.loc 1 47 3 is_stmt 1 view .LVU7
  58              		.loc 1 47 25 is_stmt 0 view .LVU8
  59 001a 8360     		str	r3, [r0, #8]
  48:Core/Src/adc.c ****   hadc1.Init.DataAlign = ADC_DATAALIGN_RIGHT;
  60              		.loc 1 48 3 is_stmt 1 view .LVU9
  61              		.loc 1 48 24 is_stmt 0 view .LVU10
  62 001c C360     		str	r3, [r0, #12]
  49:Core/Src/adc.c ****   hadc1.Init.ScanConvMode = ADC_SCAN_DISABLE;
  63              		.loc 1 49 3 is_stmt 1 view .LVU11
  64              		.loc 1 49 27 is_stmt 0 view .LVU12
  65 001e 0361     		str	r3, [r0, #16]
  50:Core/Src/adc.c ****   hadc1.Init.EOCSelection = ADC_EOC_SINGLE_CONV;
ARM GAS  C:\msys64\tmp\cc61jqoi.s 			page 3


  66              		.loc 1 50 3 is_stmt 1 view .LVU13
  67              		.loc 1 50 27 is_stmt 0 view .LVU14
  68 0020 0422     		movs	r2, #4
  69 0022 4261     		str	r2, [r0, #20]
  51:Core/Src/adc.c ****   hadc1.Init.LowPowerAutoWait = DISABLE;
  70              		.loc 1 51 3 is_stmt 1 view .LVU15
  71              		.loc 1 51 31 is_stmt 0 view .LVU16
  72 0024 0376     		strb	r3, [r0, #24]
  52:Core/Src/adc.c ****   hadc1.Init.ContinuousConvMode = DISABLE;
  73              		.loc 1 52 3 is_stmt 1 view .LVU17
  74              		.loc 1 52 33 is_stmt 0 view .LVU18
  75 0026 4376     		strb	r3, [r0, #25]
  53:Core/Src/adc.c ****   hadc1.Init.NbrOfConversion = 1;
  76              		.loc 1 53 3 is_stmt 1 view .LVU19
  77              		.loc 1 53 30 is_stmt 0 view .LVU20
  78 0028 0122     		movs	r2, #1
  79 002a C261     		str	r2, [r0, #28]
  54:Core/Src/adc.c ****   hadc1.Init.DiscontinuousConvMode = DISABLE;
  80              		.loc 1 54 3 is_stmt 1 view .LVU21
  81              		.loc 1 54 36 is_stmt 0 view .LVU22
  82 002c 80F82030 		strb	r3, [r0, #32]
  55:Core/Src/adc.c ****   hadc1.Init.ExternalTrigConv = ADC_SOFTWARE_START;
  83              		.loc 1 55 3 is_stmt 1 view .LVU23
  84              		.loc 1 55 31 is_stmt 0 view .LVU24
  85 0030 8362     		str	r3, [r0, #40]
  56:Core/Src/adc.c ****   hadc1.Init.ExternalTrigConvEdge = ADC_EXTERNALTRIGCONVEDGE_NONE;
  86              		.loc 1 56 3 is_stmt 1 view .LVU25
  87              		.loc 1 56 35 is_stmt 0 view .LVU26
  88 0032 C362     		str	r3, [r0, #44]
  57:Core/Src/adc.c ****   hadc1.Init.DMAContinuousRequests = DISABLE;
  89              		.loc 1 57 3 is_stmt 1 view .LVU27
  90              		.loc 1 57 36 is_stmt 0 view .LVU28
  91 0034 80F83030 		strb	r3, [r0, #48]
  58:Core/Src/adc.c ****   hadc1.Init.Overrun = ADC_OVR_DATA_PRESERVED;
  92              		.loc 1 58 3 is_stmt 1 view .LVU29
  93              		.loc 1 58 22 is_stmt 0 view .LVU30
  94 0038 4363     		str	r3, [r0, #52]
  59:Core/Src/adc.c ****   hadc1.Init.OversamplingMode = DISABLE;
  95              		.loc 1 59 3 is_stmt 1 view .LVU31
  96              		.loc 1 59 31 is_stmt 0 view .LVU32
  97 003a 80F83830 		strb	r3, [r0, #56]
  60:Core/Src/adc.c ****   if (HAL_ADC_Init(&hadc1) != HAL_OK)
  98              		.loc 1 60 3 is_stmt 1 view .LVU33
  99              		.loc 1 60 7 is_stmt 0 view .LVU34
 100 003e FFF7FEFF 		bl	HAL_ADC_Init
 101              	.LVL0:
 102              		.loc 1 60 6 discriminator 1 view .LVU35
 103 0042 90B9     		cbnz	r0, .L5
 104              	.L2:
  61:Core/Src/adc.c ****   {
  62:Core/Src/adc.c ****     Error_Handler();
  63:Core/Src/adc.c ****   }
  64:Core/Src/adc.c **** 
  65:Core/Src/adc.c ****   /** Configure Regular Channel
  66:Core/Src/adc.c ****   */
  67:Core/Src/adc.c ****   sConfig.Channel = ADC_CHANNEL_1;
 105              		.loc 1 67 3 is_stmt 1 view .LVU36
ARM GAS  C:\msys64\tmp\cc61jqoi.s 			page 4


 106              		.loc 1 67 19 is_stmt 0 view .LVU37
 107 0044 0E4B     		ldr	r3, .L7+8
 108 0046 0093     		str	r3, [sp]
  68:Core/Src/adc.c ****   sConfig.Rank = ADC_REGULAR_RANK_1;
 109              		.loc 1 68 3 is_stmt 1 view .LVU38
 110              		.loc 1 68 16 is_stmt 0 view .LVU39
 111 0048 0623     		movs	r3, #6
 112 004a 0193     		str	r3, [sp, #4]
  69:Core/Src/adc.c ****   sConfig.SamplingTime = ADC_SAMPLETIME_2CYCLES_5;
 113              		.loc 1 69 3 is_stmt 1 view .LVU40
 114              		.loc 1 69 24 is_stmt 0 view .LVU41
 115 004c 0023     		movs	r3, #0
 116 004e 0293     		str	r3, [sp, #8]
  70:Core/Src/adc.c ****   sConfig.SingleDiff = ADC_SINGLE_ENDED;
 117              		.loc 1 70 3 is_stmt 1 view .LVU42
 118              		.loc 1 70 22 is_stmt 0 view .LVU43
 119 0050 7F22     		movs	r2, #127
 120 0052 0392     		str	r2, [sp, #12]
  71:Core/Src/adc.c ****   sConfig.OffsetNumber = ADC_OFFSET_NONE;
 121              		.loc 1 71 3 is_stmt 1 view .LVU44
 122              		.loc 1 71 24 is_stmt 0 view .LVU45
 123 0054 0422     		movs	r2, #4
 124 0056 0492     		str	r2, [sp, #16]
  72:Core/Src/adc.c ****   sConfig.Offset = 0;
 125              		.loc 1 72 3 is_stmt 1 view .LVU46
 126              		.loc 1 72 18 is_stmt 0 view .LVU47
 127 0058 0593     		str	r3, [sp, #20]
  73:Core/Src/adc.c ****   if (HAL_ADC_ConfigChannel(&hadc1, &sConfig) != HAL_OK)
 128              		.loc 1 73 3 is_stmt 1 view .LVU48
 129              		.loc 1 73 7 is_stmt 0 view .LVU49
 130 005a 6946     		mov	r1, sp
 131 005c 0648     		ldr	r0, .L7
 132 005e FFF7FEFF 		bl	HAL_ADC_ConfigChannel
 133              	.LVL1:
 134              		.loc 1 73 6 discriminator 1 view .LVU50
 135 0062 28B9     		cbnz	r0, .L6
 136              	.L1:
  74:Core/Src/adc.c ****   {
  75:Core/Src/adc.c ****     Error_Handler();
  76:Core/Src/adc.c ****   }
  77:Core/Src/adc.c ****   /* USER CODE BEGIN ADC1_Init 2 */
  78:Core/Src/adc.c **** 
  79:Core/Src/adc.c ****   /* USER CODE END ADC1_Init 2 */
  80:Core/Src/adc.c **** 
  81:Core/Src/adc.c **** }
 137              		.loc 1 81 1 view .LVU51
 138 0064 07B0     		add	sp, sp, #28
 139              	.LCFI2:
 140              		.cfi_remember_state
 141              		.cfi_def_cfa_offset 4
 142              		@ sp needed
 143 0066 5DF804FB 		ldr	pc, [sp], #4
 144              	.L5:
 145              	.LCFI3:
 146              		.cfi_restore_state
  62:Core/Src/adc.c ****   }
 147              		.loc 1 62 5 is_stmt 1 view .LVU52
ARM GAS  C:\msys64\tmp\cc61jqoi.s 			page 5


 148 006a FFF7FEFF 		bl	Error_Handler
 149              	.LVL2:
 150 006e E9E7     		b	.L2
 151              	.L6:
  75:Core/Src/adc.c ****   }
 152              		.loc 1 75 5 view .LVU53
 153 0070 FFF7FEFF 		bl	Error_Handler
 154              	.LVL3:
 155              		.loc 1 81 1 is_stmt 0 view .LVU54
 156 0074 F6E7     		b	.L1
 157              	.L8:
 158 0076 00BF     		.align	2
 159              	.L7:
 160 0078 00000000 		.word	hadc1
 161 007c 00000450 		.word	1342439424
 162 0080 02003004 		.word	70254594
 163              		.cfi_endproc
 164              	.LFE384:
 166              		.section	.text.HAL_ADC_MspInit,"ax",%progbits
 167              		.align	1
 168              		.global	HAL_ADC_MspInit
 169              		.syntax unified
 170              		.thumb
 171              		.thumb_func
 173              	HAL_ADC_MspInit:
 174              	.LVL4:
 175              	.LFB385:
  82:Core/Src/adc.c **** 
  83:Core/Src/adc.c **** void HAL_ADC_MspInit(ADC_HandleTypeDef* adcHandle)
  84:Core/Src/adc.c **** {
 176              		.loc 1 84 1 is_stmt 1 view -0
 177              		.cfi_startproc
 178              		@ args = 0, pretend = 0, frame = 128
 179              		@ frame_needed = 0, uses_anonymous_args = 0
 180              		.loc 1 84 1 is_stmt 0 view .LVU56
 181 0000 10B5     		push	{r4, lr}
 182              	.LCFI4:
 183              		.cfi_def_cfa_offset 8
 184              		.cfi_offset 4, -8
 185              		.cfi_offset 14, -4
 186 0002 A0B0     		sub	sp, sp, #128
 187              	.LCFI5:
 188              		.cfi_def_cfa_offset 136
 189 0004 0446     		mov	r4, r0
  85:Core/Src/adc.c **** 
  86:Core/Src/adc.c ****   GPIO_InitTypeDef GPIO_InitStruct = {0};
 190              		.loc 1 86 3 is_stmt 1 view .LVU57
 191              		.loc 1 86 20 is_stmt 0 view .LVU58
 192 0006 0021     		movs	r1, #0
 193 0008 1B91     		str	r1, [sp, #108]
 194 000a 1C91     		str	r1, [sp, #112]
 195 000c 1D91     		str	r1, [sp, #116]
 196 000e 1E91     		str	r1, [sp, #120]
 197 0010 1F91     		str	r1, [sp, #124]
  87:Core/Src/adc.c ****   RCC_PeriphCLKInitTypeDef PeriphClkInit = {0};
 198              		.loc 1 87 3 is_stmt 1 view .LVU59
 199              		.loc 1 87 28 is_stmt 0 view .LVU60
ARM GAS  C:\msys64\tmp\cc61jqoi.s 			page 6


 200 0012 6022     		movs	r2, #96
 201 0014 03A8     		add	r0, sp, #12
 202              	.LVL5:
 203              		.loc 1 87 28 view .LVU61
 204 0016 FFF7FEFF 		bl	memset
 205              	.LVL6:
  88:Core/Src/adc.c ****   if(adcHandle->Instance==ADC1)
 206              		.loc 1 88 3 is_stmt 1 view .LVU62
 207              		.loc 1 88 15 is_stmt 0 view .LVU63
 208 001a 2268     		ldr	r2, [r4]
 209              		.loc 1 88 5 view .LVU64
 210 001c 224B     		ldr	r3, .L15
 211 001e 9A42     		cmp	r2, r3
 212 0020 01D0     		beq	.L13
 213              	.LVL7:
 214              	.L9:
  89:Core/Src/adc.c ****   {
  90:Core/Src/adc.c ****   /* USER CODE BEGIN ADC1_MspInit 0 */
  91:Core/Src/adc.c **** 
  92:Core/Src/adc.c ****   /* USER CODE END ADC1_MspInit 0 */
  93:Core/Src/adc.c **** 
  94:Core/Src/adc.c ****   /** Initializes the peripherals clock
  95:Core/Src/adc.c ****   */
  96:Core/Src/adc.c ****     PeriphClkInit.PeriphClockSelection = RCC_PERIPHCLK_ADC;
  97:Core/Src/adc.c ****     PeriphClkInit.AdcClockSelection = RCC_ADCCLKSOURCE_PLLSAI1;
  98:Core/Src/adc.c ****     PeriphClkInit.PLLSAI1.PLLSAI1Source = RCC_PLLSOURCE_HSI;
  99:Core/Src/adc.c ****     PeriphClkInit.PLLSAI1.PLLSAI1M = 1;
 100:Core/Src/adc.c ****     PeriphClkInit.PLLSAI1.PLLSAI1N = 8;
 101:Core/Src/adc.c ****     PeriphClkInit.PLLSAI1.PLLSAI1P = RCC_PLLP_DIV7;
 102:Core/Src/adc.c ****     PeriphClkInit.PLLSAI1.PLLSAI1Q = RCC_PLLQ_DIV2;
 103:Core/Src/adc.c ****     PeriphClkInit.PLLSAI1.PLLSAI1R = RCC_PLLR_DIV2;
 104:Core/Src/adc.c ****     PeriphClkInit.PLLSAI1.PLLSAI1ClockOut = RCC_PLLSAI1_ADC1CLK;
 105:Core/Src/adc.c ****     if (HAL_RCCEx_PeriphCLKConfig(&PeriphClkInit) != HAL_OK)
 106:Core/Src/adc.c ****     {
 107:Core/Src/adc.c ****       Error_Handler();
 108:Core/Src/adc.c ****     }
 109:Core/Src/adc.c **** 
 110:Core/Src/adc.c ****     /* ADC1 clock enable */
 111:Core/Src/adc.c ****     __HAL_RCC_ADC_CLK_ENABLE();
 112:Core/Src/adc.c **** 
 113:Core/Src/adc.c ****     __HAL_RCC_GPIOC_CLK_ENABLE();
 114:Core/Src/adc.c ****     /**ADC1 GPIO Configuration
 115:Core/Src/adc.c ****     PC0     ------> ADC1_IN1
 116:Core/Src/adc.c ****     */
 117:Core/Src/adc.c ****     GPIO_InitStruct.Pin = ADC1_IN1_Pin;
 118:Core/Src/adc.c ****     GPIO_InitStruct.Mode = GPIO_MODE_ANALOG_ADC_CONTROL;
 119:Core/Src/adc.c ****     GPIO_InitStruct.Pull = GPIO_NOPULL;
 120:Core/Src/adc.c ****     HAL_GPIO_Init(ADC1_IN1_GPIO_Port, &GPIO_InitStruct);
 121:Core/Src/adc.c **** 
 122:Core/Src/adc.c ****     /* ADC1 interrupt Init */
 123:Core/Src/adc.c ****     HAL_NVIC_SetPriority(ADC1_IRQn, 0, 0);
 124:Core/Src/adc.c ****     HAL_NVIC_EnableIRQ(ADC1_IRQn);
 125:Core/Src/adc.c ****   /* USER CODE BEGIN ADC1_MspInit 1 */
 126:Core/Src/adc.c **** 
 127:Core/Src/adc.c ****   /* USER CODE END ADC1_MspInit 1 */
 128:Core/Src/adc.c ****   }
 129:Core/Src/adc.c **** }
ARM GAS  C:\msys64\tmp\cc61jqoi.s 			page 7


 215              		.loc 1 129 1 view .LVU65
 216 0022 20B0     		add	sp, sp, #128
 217              	.LCFI6:
 218              		.cfi_remember_state
 219              		.cfi_def_cfa_offset 8
 220              		@ sp needed
 221 0024 10BD     		pop	{r4, pc}
 222              	.LVL8:
 223              	.L13:
 224              	.LCFI7:
 225              		.cfi_restore_state
  96:Core/Src/adc.c ****     PeriphClkInit.AdcClockSelection = RCC_ADCCLKSOURCE_PLLSAI1;
 226              		.loc 1 96 5 is_stmt 1 view .LVU66
  96:Core/Src/adc.c ****     PeriphClkInit.AdcClockSelection = RCC_ADCCLKSOURCE_PLLSAI1;
 227              		.loc 1 96 40 is_stmt 0 view .LVU67
 228 0026 4FF48043 		mov	r3, #16384
 229 002a 0393     		str	r3, [sp, #12]
  97:Core/Src/adc.c ****     PeriphClkInit.PLLSAI1.PLLSAI1Source = RCC_PLLSOURCE_HSI;
 230              		.loc 1 97 5 is_stmt 1 view .LVU68
  97:Core/Src/adc.c ****     PeriphClkInit.PLLSAI1.PLLSAI1Source = RCC_PLLSOURCE_HSI;
 231              		.loc 1 97 37 is_stmt 0 view .LVU69
 232 002c 4FF08053 		mov	r3, #268435456
 233 0030 1893     		str	r3, [sp, #96]
  98:Core/Src/adc.c ****     PeriphClkInit.PLLSAI1.PLLSAI1M = 1;
 234              		.loc 1 98 5 is_stmt 1 view .LVU70
  98:Core/Src/adc.c ****     PeriphClkInit.PLLSAI1.PLLSAI1M = 1;
 235              		.loc 1 98 41 is_stmt 0 view .LVU71
 236 0032 0223     		movs	r3, #2
 237 0034 0493     		str	r3, [sp, #16]
  99:Core/Src/adc.c ****     PeriphClkInit.PLLSAI1.PLLSAI1N = 8;
 238              		.loc 1 99 5 is_stmt 1 view .LVU72
  99:Core/Src/adc.c ****     PeriphClkInit.PLLSAI1.PLLSAI1N = 8;
 239              		.loc 1 99 36 is_stmt 0 view .LVU73
 240 0036 0122     		movs	r2, #1
 241 0038 0592     		str	r2, [sp, #20]
 100:Core/Src/adc.c ****     PeriphClkInit.PLLSAI1.PLLSAI1P = RCC_PLLP_DIV7;
 242              		.loc 1 100 5 is_stmt 1 view .LVU74
 100:Core/Src/adc.c ****     PeriphClkInit.PLLSAI1.PLLSAI1P = RCC_PLLP_DIV7;
 243              		.loc 1 100 36 is_stmt 0 view .LVU75
 244 003a 0822     		movs	r2, #8
 245 003c 0692     		str	r2, [sp, #24]
 101:Core/Src/adc.c ****     PeriphClkInit.PLLSAI1.PLLSAI1Q = RCC_PLLQ_DIV2;
 246              		.loc 1 101 5 is_stmt 1 view .LVU76
 101:Core/Src/adc.c ****     PeriphClkInit.PLLSAI1.PLLSAI1Q = RCC_PLLQ_DIV2;
 247              		.loc 1 101 36 is_stmt 0 view .LVU77
 248 003e 0722     		movs	r2, #7
 249 0040 0792     		str	r2, [sp, #28]
 102:Core/Src/adc.c ****     PeriphClkInit.PLLSAI1.PLLSAI1R = RCC_PLLR_DIV2;
 250              		.loc 1 102 5 is_stmt 1 view .LVU78
 102:Core/Src/adc.c ****     PeriphClkInit.PLLSAI1.PLLSAI1R = RCC_PLLR_DIV2;
 251              		.loc 1 102 36 is_stmt 0 view .LVU79
 252 0042 0893     		str	r3, [sp, #32]
 103:Core/Src/adc.c ****     PeriphClkInit.PLLSAI1.PLLSAI1ClockOut = RCC_PLLSAI1_ADC1CLK;
 253              		.loc 1 103 5 is_stmt 1 view .LVU80
 103:Core/Src/adc.c ****     PeriphClkInit.PLLSAI1.PLLSAI1ClockOut = RCC_PLLSAI1_ADC1CLK;
 254              		.loc 1 103 36 is_stmt 0 view .LVU81
 255 0044 0993     		str	r3, [sp, #36]
ARM GAS  C:\msys64\tmp\cc61jqoi.s 			page 8


 104:Core/Src/adc.c ****     if (HAL_RCCEx_PeriphCLKConfig(&PeriphClkInit) != HAL_OK)
 256              		.loc 1 104 5 is_stmt 1 view .LVU82
 104:Core/Src/adc.c ****     if (HAL_RCCEx_PeriphCLKConfig(&PeriphClkInit) != HAL_OK)
 257              		.loc 1 104 43 is_stmt 0 view .LVU83
 258 0046 4FF08073 		mov	r3, #16777216
 259 004a 0A93     		str	r3, [sp, #40]
 105:Core/Src/adc.c ****     {
 260              		.loc 1 105 5 is_stmt 1 view .LVU84
 105:Core/Src/adc.c ****     {
 261              		.loc 1 105 9 is_stmt 0 view .LVU85
 262 004c 03A8     		add	r0, sp, #12
 263 004e FFF7FEFF 		bl	HAL_RCCEx_PeriphCLKConfig
 264              	.LVL9:
 105:Core/Src/adc.c ****     {
 265              		.loc 1 105 8 discriminator 1 view .LVU86
 266 0052 28BB     		cbnz	r0, .L14
 267              	.L11:
 111:Core/Src/adc.c **** 
 268              		.loc 1 111 5 is_stmt 1 view .LVU87
 269              	.LBB2:
 111:Core/Src/adc.c **** 
 270              		.loc 1 111 5 view .LVU88
 111:Core/Src/adc.c **** 
 271              		.loc 1 111 5 view .LVU89
 272 0054 154B     		ldr	r3, .L15+4
 273 0056 DA6C     		ldr	r2, [r3, #76]
 274 0058 42F40052 		orr	r2, r2, #8192
 275 005c DA64     		str	r2, [r3, #76]
 111:Core/Src/adc.c **** 
 276              		.loc 1 111 5 view .LVU90
 277 005e DA6C     		ldr	r2, [r3, #76]
 278 0060 02F40052 		and	r2, r2, #8192
 279 0064 0192     		str	r2, [sp, #4]
 111:Core/Src/adc.c **** 
 280              		.loc 1 111 5 view .LVU91
 281 0066 019A     		ldr	r2, [sp, #4]
 282              	.LBE2:
 111:Core/Src/adc.c **** 
 283              		.loc 1 111 5 view .LVU92
 113:Core/Src/adc.c ****     /**ADC1 GPIO Configuration
 284              		.loc 1 113 5 view .LVU93
 285              	.LBB3:
 113:Core/Src/adc.c ****     /**ADC1 GPIO Configuration
 286              		.loc 1 113 5 view .LVU94
 113:Core/Src/adc.c ****     /**ADC1 GPIO Configuration
 287              		.loc 1 113 5 view .LVU95
 288 0068 DA6C     		ldr	r2, [r3, #76]
 289 006a 42F00402 		orr	r2, r2, #4
 290 006e DA64     		str	r2, [r3, #76]
 113:Core/Src/adc.c ****     /**ADC1 GPIO Configuration
 291              		.loc 1 113 5 view .LVU96
 292 0070 DB6C     		ldr	r3, [r3, #76]
 293 0072 03F00403 		and	r3, r3, #4
 294 0076 0293     		str	r3, [sp, #8]
 113:Core/Src/adc.c ****     /**ADC1 GPIO Configuration
 295              		.loc 1 113 5 view .LVU97
 296 0078 029B     		ldr	r3, [sp, #8]
ARM GAS  C:\msys64\tmp\cc61jqoi.s 			page 9


 297              	.LBE3:
 113:Core/Src/adc.c ****     /**ADC1 GPIO Configuration
 298              		.loc 1 113 5 view .LVU98
 117:Core/Src/adc.c ****     GPIO_InitStruct.Mode = GPIO_MODE_ANALOG_ADC_CONTROL;
 299              		.loc 1 117 5 view .LVU99
 117:Core/Src/adc.c ****     GPIO_InitStruct.Mode = GPIO_MODE_ANALOG_ADC_CONTROL;
 300              		.loc 1 117 25 is_stmt 0 view .LVU100
 301 007a 0123     		movs	r3, #1
 302 007c 1B93     		str	r3, [sp, #108]
 118:Core/Src/adc.c ****     GPIO_InitStruct.Pull = GPIO_NOPULL;
 303              		.loc 1 118 5 is_stmt 1 view .LVU101
 118:Core/Src/adc.c ****     GPIO_InitStruct.Pull = GPIO_NOPULL;
 304              		.loc 1 118 26 is_stmt 0 view .LVU102
 305 007e 0B23     		movs	r3, #11
 306 0080 1C93     		str	r3, [sp, #112]
 119:Core/Src/adc.c ****     HAL_GPIO_Init(ADC1_IN1_GPIO_Port, &GPIO_InitStruct);
 307              		.loc 1 119 5 is_stmt 1 view .LVU103
 119:Core/Src/adc.c ****     HAL_GPIO_Init(ADC1_IN1_GPIO_Port, &GPIO_InitStruct);
 308              		.loc 1 119 26 is_stmt 0 view .LVU104
 309 0082 0024     		movs	r4, #0
 310              	.LVL10:
 119:Core/Src/adc.c ****     HAL_GPIO_Init(ADC1_IN1_GPIO_Port, &GPIO_InitStruct);
 311              		.loc 1 119 26 view .LVU105
 312 0084 1D94     		str	r4, [sp, #116]
 120:Core/Src/adc.c **** 
 313              		.loc 1 120 5 is_stmt 1 view .LVU106
 314 0086 1BA9     		add	r1, sp, #108
 315 0088 0948     		ldr	r0, .L15+8
 316 008a FFF7FEFF 		bl	HAL_GPIO_Init
 317              	.LVL11:
 123:Core/Src/adc.c ****     HAL_NVIC_EnableIRQ(ADC1_IRQn);
 318              		.loc 1 123 5 view .LVU107
 319 008e 2246     		mov	r2, r4
 320 0090 2146     		mov	r1, r4
 321 0092 1220     		movs	r0, #18
 322 0094 FFF7FEFF 		bl	HAL_NVIC_SetPriority
 323              	.LVL12:
 124:Core/Src/adc.c ****   /* USER CODE BEGIN ADC1_MspInit 1 */
 324              		.loc 1 124 5 view .LVU108
 325 0098 1220     		movs	r0, #18
 326 009a FFF7FEFF 		bl	HAL_NVIC_EnableIRQ
 327              	.LVL13:
 328              		.loc 1 129 1 is_stmt 0 view .LVU109
 329 009e C0E7     		b	.L9
 330              	.LVL14:
 331              	.L14:
 107:Core/Src/adc.c ****     }
 332              		.loc 1 107 7 is_stmt 1 view .LVU110
 333 00a0 FFF7FEFF 		bl	Error_Handler
 334              	.LVL15:
 335 00a4 D6E7     		b	.L11
 336              	.L16:
 337 00a6 00BF     		.align	2
 338              	.L15:
 339 00a8 00000450 		.word	1342439424
 340 00ac 00100240 		.word	1073876992
 341 00b0 00080048 		.word	1207961600
ARM GAS  C:\msys64\tmp\cc61jqoi.s 			page 10


 342              		.cfi_endproc
 343              	.LFE385:
 345              		.section	.text.HAL_ADC_MspDeInit,"ax",%progbits
 346              		.align	1
 347              		.global	HAL_ADC_MspDeInit
 348              		.syntax unified
 349              		.thumb
 350              		.thumb_func
 352              	HAL_ADC_MspDeInit:
 353              	.LVL16:
 354              	.LFB386:
 130:Core/Src/adc.c **** 
 131:Core/Src/adc.c **** void HAL_ADC_MspDeInit(ADC_HandleTypeDef* adcHandle)
 132:Core/Src/adc.c **** {
 355              		.loc 1 132 1 view -0
 356              		.cfi_startproc
 357              		@ args = 0, pretend = 0, frame = 0
 358              		@ frame_needed = 0, uses_anonymous_args = 0
 359              		.loc 1 132 1 is_stmt 0 view .LVU112
 360 0000 08B5     		push	{r3, lr}
 361              	.LCFI8:
 362              		.cfi_def_cfa_offset 8
 363              		.cfi_offset 3, -8
 364              		.cfi_offset 14, -4
 133:Core/Src/adc.c **** 
 134:Core/Src/adc.c ****   if(adcHandle->Instance==ADC1)
 365              		.loc 1 134 3 is_stmt 1 view .LVU113
 366              		.loc 1 134 15 is_stmt 0 view .LVU114
 367 0002 0268     		ldr	r2, [r0]
 368              		.loc 1 134 5 view .LVU115
 369 0004 084B     		ldr	r3, .L21
 370 0006 9A42     		cmp	r2, r3
 371 0008 00D0     		beq	.L20
 372              	.LVL17:
 373              	.L17:
 135:Core/Src/adc.c ****   {
 136:Core/Src/adc.c ****   /* USER CODE BEGIN ADC1_MspDeInit 0 */
 137:Core/Src/adc.c **** 
 138:Core/Src/adc.c ****   /* USER CODE END ADC1_MspDeInit 0 */
 139:Core/Src/adc.c ****     /* Peripheral clock disable */
 140:Core/Src/adc.c ****     __HAL_RCC_ADC_CLK_DISABLE();
 141:Core/Src/adc.c **** 
 142:Core/Src/adc.c ****     /**ADC1 GPIO Configuration
 143:Core/Src/adc.c ****     PC0     ------> ADC1_IN1
 144:Core/Src/adc.c ****     */
 145:Core/Src/adc.c ****     HAL_GPIO_DeInit(ADC1_IN1_GPIO_Port, ADC1_IN1_Pin);
 146:Core/Src/adc.c **** 
 147:Core/Src/adc.c ****     /* ADC1 interrupt Deinit */
 148:Core/Src/adc.c ****     HAL_NVIC_DisableIRQ(ADC1_IRQn);
 149:Core/Src/adc.c ****   /* USER CODE BEGIN ADC1_MspDeInit 1 */
 150:Core/Src/adc.c **** 
 151:Core/Src/adc.c ****   /* USER CODE END ADC1_MspDeInit 1 */
 152:Core/Src/adc.c ****   }
 153:Core/Src/adc.c **** }
 374              		.loc 1 153 1 view .LVU116
 375 000a 08BD     		pop	{r3, pc}
 376              	.LVL18:
ARM GAS  C:\msys64\tmp\cc61jqoi.s 			page 11


 377              	.L20:
 140:Core/Src/adc.c **** 
 378              		.loc 1 140 5 is_stmt 1 view .LVU117
 379 000c 074A     		ldr	r2, .L21+4
 380 000e D36C     		ldr	r3, [r2, #76]
 381 0010 23F40053 		bic	r3, r3, #8192
 382 0014 D364     		str	r3, [r2, #76]
 145:Core/Src/adc.c **** 
 383              		.loc 1 145 5 view .LVU118
 384 0016 0121     		movs	r1, #1
 385 0018 0548     		ldr	r0, .L21+8
 386              	.LVL19:
 145:Core/Src/adc.c **** 
 387              		.loc 1 145 5 is_stmt 0 view .LVU119
 388 001a FFF7FEFF 		bl	HAL_GPIO_DeInit
 389              	.LVL20:
 148:Core/Src/adc.c ****   /* USER CODE BEGIN ADC1_MspDeInit 1 */
 390              		.loc 1 148 5 is_stmt 1 view .LVU120
 391 001e 1220     		movs	r0, #18
 392 0020 FFF7FEFF 		bl	HAL_NVIC_DisableIRQ
 393              	.LVL21:
 394              		.loc 1 153 1 is_stmt 0 view .LVU121
 395 0024 F1E7     		b	.L17
 396              	.L22:
 397 0026 00BF     		.align	2
 398              	.L21:
 399 0028 00000450 		.word	1342439424
 400 002c 00100240 		.word	1073876992
 401 0030 00080048 		.word	1207961600
 402              		.cfi_endproc
 403              	.LFE386:
 405              		.global	hadc1
 406              		.section	.bss.hadc1,"aw",%nobits
 407              		.align	2
 410              	hadc1:
 411 0000 00000000 		.space	100
 411      00000000 
 411      00000000 
 411      00000000 
 411      00000000 
 412              		.text
 413              	.Letext0:
 414              		.file 2 "Drivers/CMSIS/Device/ST/STM32L4xx/Include/stm32l433xx.h"
 415              		.file 3 "C:/msys64/mingw64/arm-none-eabi/include/machine/_default_types.h"
 416              		.file 4 "C:/msys64/mingw64/arm-none-eabi/include/sys/_stdint.h"
 417              		.file 5 "Drivers/CMSIS/Device/ST/STM32L4xx/Include/stm32l4xx.h"
 418              		.file 6 "Drivers/STM32L4xx_HAL_Driver/Inc/stm32l4xx_hal_def.h"
 419              		.file 7 "Drivers/STM32L4xx_HAL_Driver/Inc/stm32l4xx_hal_rcc_ex.h"
 420              		.file 8 "Drivers/STM32L4xx_HAL_Driver/Inc/stm32l4xx_hal_gpio.h"
 421              		.file 9 "Drivers/STM32L4xx_HAL_Driver/Inc/stm32l4xx_hal_dma.h"
 422              		.file 10 "Drivers/STM32L4xx_HAL_Driver/Inc/stm32l4xx_hal_adc.h"
 423              		.file 11 "Drivers/STM32L4xx_HAL_Driver/Inc/stm32l4xx_hal_cortex.h"
 424              		.file 12 "Drivers/STM32L4xx_HAL_Driver/Inc/stm32l4xx_ll_dma.h"
 425              		.file 13 "Core/Inc/adc.h"
 426              		.file 14 "Core/Inc/main.h"
 427              		.file 15 "<built-in>"
ARM GAS  C:\msys64\tmp\cc61jqoi.s 			page 12

