ARM GAS  C:\msys64\tmp\cc6TFu6e.s 			page 1


   1              		.cpu cortex-m4
   2              		.arch armv7e-m
   3              		.fpu fpv4-sp-d16
   4              		.eabi_attribute 27, 1
   5              		.eabi_attribute 28, 1
   6              		.eabi_attribute 20, 1
   7              		.eabi_attribute 21, 1
   8              		.eabi_attribute 23, 3
   9              		.eabi_attribute 24, 1
  10              		.eabi_attribute 25, 1
  11              		.eabi_attribute 26, 1
  12              		.eabi_attribute 30, 1
  13              		.eabi_attribute 34, 1
  14              		.eabi_attribute 18, 4
  15              		.file	"stm32l4xx_it.c"
  16              		.text
  17              	.Ltext0:
  18              		.cfi_sections	.debug_frame
  19              		.file 1 "Core/Src/stm32l4xx_it.c"
  20              		.section	.text.NMI_Handler,"ax",%progbits
  21              		.align	1
  22              		.global	NMI_Handler
  23              		.syntax unified
  24              		.thumb
  25              		.thumb_func
  27              	NMI_Handler:
  28              	.LFB384:
   1:Core/Src/stm32l4xx_it.c **** /* USER CODE BEGIN Header */
   2:Core/Src/stm32l4xx_it.c **** /**
   3:Core/Src/stm32l4xx_it.c ****   ******************************************************************************
   4:Core/Src/stm32l4xx_it.c ****   * @file    stm32l4xx_it.c
   5:Core/Src/stm32l4xx_it.c ****   * @brief   Interrupt Service Routines.
   6:Core/Src/stm32l4xx_it.c ****   ******************************************************************************
   7:Core/Src/stm32l4xx_it.c ****   * @attention
   8:Core/Src/stm32l4xx_it.c ****   *
   9:Core/Src/stm32l4xx_it.c ****   * Copyright (c) 2026 STMicroelectronics.
  10:Core/Src/stm32l4xx_it.c ****   * All rights reserved.
  11:Core/Src/stm32l4xx_it.c ****   *
  12:Core/Src/stm32l4xx_it.c ****   * This software is licensed under terms that can be found in the LICENSE file
  13:Core/Src/stm32l4xx_it.c ****   * in the root directory of this software component.
  14:Core/Src/stm32l4xx_it.c ****   * If no LICENSE file comes with this software, it is provided AS-IS.
  15:Core/Src/stm32l4xx_it.c ****   *
  16:Core/Src/stm32l4xx_it.c ****   ******************************************************************************
  17:Core/Src/stm32l4xx_it.c ****   */
  18:Core/Src/stm32l4xx_it.c **** /* USER CODE END Header */
  19:Core/Src/stm32l4xx_it.c **** 
  20:Core/Src/stm32l4xx_it.c **** /* Includes ------------------------------------------------------------------*/
  21:Core/Src/stm32l4xx_it.c **** #include "main.h"
  22:Core/Src/stm32l4xx_it.c **** #include "stm32l4xx_it.h"
  23:Core/Src/stm32l4xx_it.c **** /* Private includes ----------------------------------------------------------*/
  24:Core/Src/stm32l4xx_it.c **** /* USER CODE BEGIN Includes */
  25:Core/Src/stm32l4xx_it.c **** /* USER CODE END Includes */
  26:Core/Src/stm32l4xx_it.c **** 
  27:Core/Src/stm32l4xx_it.c **** /* Private typedef -----------------------------------------------------------*/
  28:Core/Src/stm32l4xx_it.c **** /* USER CODE BEGIN TD */
  29:Core/Src/stm32l4xx_it.c **** 
  30:Core/Src/stm32l4xx_it.c **** /* USER CODE END TD */
ARM GAS  C:\msys64\tmp\cc6TFu6e.s 			page 2


  31:Core/Src/stm32l4xx_it.c **** 
  32:Core/Src/stm32l4xx_it.c **** /* Private define ------------------------------------------------------------*/
  33:Core/Src/stm32l4xx_it.c **** /* USER CODE BEGIN PD */
  34:Core/Src/stm32l4xx_it.c **** 
  35:Core/Src/stm32l4xx_it.c **** /* USER CODE END PD */
  36:Core/Src/stm32l4xx_it.c **** 
  37:Core/Src/stm32l4xx_it.c **** /* Private macro -------------------------------------------------------------*/
  38:Core/Src/stm32l4xx_it.c **** /* USER CODE BEGIN PM */
  39:Core/Src/stm32l4xx_it.c **** 
  40:Core/Src/stm32l4xx_it.c **** /* USER CODE END PM */
  41:Core/Src/stm32l4xx_it.c **** 
  42:Core/Src/stm32l4xx_it.c **** /* Private variables ---------------------------------------------------------*/
  43:Core/Src/stm32l4xx_it.c **** /* USER CODE BEGIN PV */
  44:Core/Src/stm32l4xx_it.c **** FlightStates flightState = PREFLIGHT;
  45:Core/Src/stm32l4xx_it.c **** /* USER CODE END PV */
  46:Core/Src/stm32l4xx_it.c **** 
  47:Core/Src/stm32l4xx_it.c **** /* Private function prototypes -----------------------------------------------*/
  48:Core/Src/stm32l4xx_it.c **** /* USER CODE BEGIN PFP */
  49:Core/Src/stm32l4xx_it.c **** 
  50:Core/Src/stm32l4xx_it.c **** /* USER CODE END PFP */
  51:Core/Src/stm32l4xx_it.c **** 
  52:Core/Src/stm32l4xx_it.c **** /* Private user code ---------------------------------------------------------*/
  53:Core/Src/stm32l4xx_it.c **** /* USER CODE BEGIN 0 */
  54:Core/Src/stm32l4xx_it.c **** 
  55:Core/Src/stm32l4xx_it.c **** /* USER CODE END 0 */
  56:Core/Src/stm32l4xx_it.c **** 
  57:Core/Src/stm32l4xx_it.c **** /* External variables --------------------------------------------------------*/
  58:Core/Src/stm32l4xx_it.c **** extern ADC_HandleTypeDef hadc1;
  59:Core/Src/stm32l4xx_it.c **** extern I2C_HandleTypeDef hi2c1;
  60:Core/Src/stm32l4xx_it.c **** extern I2C_HandleTypeDef hi2c2;
  61:Core/Src/stm32l4xx_it.c **** extern SPI_HandleTypeDef hspi1;
  62:Core/Src/stm32l4xx_it.c **** extern UART_HandleTypeDef huart1;
  63:Core/Src/stm32l4xx_it.c **** extern UART_HandleTypeDef huart2;
  64:Core/Src/stm32l4xx_it.c **** /* USER CODE BEGIN EV */
  65:Core/Src/stm32l4xx_it.c **** extern uint16_t Timer1, Timer2;
  66:Core/Src/stm32l4xx_it.c **** /* USER CODE END EV */
  67:Core/Src/stm32l4xx_it.c **** 
  68:Core/Src/stm32l4xx_it.c **** /******************************************************************************/
  69:Core/Src/stm32l4xx_it.c **** /*           Cortex-M4 Processor Interruption and Exception Handlers          */
  70:Core/Src/stm32l4xx_it.c **** /******************************************************************************/
  71:Core/Src/stm32l4xx_it.c **** /**
  72:Core/Src/stm32l4xx_it.c ****   * @brief This function handles Non maskable interrupt.
  73:Core/Src/stm32l4xx_it.c ****   */
  74:Core/Src/stm32l4xx_it.c **** void NMI_Handler(void)
  75:Core/Src/stm32l4xx_it.c **** {
  29              		.loc 1 75 1 view -0
  30              		.cfi_startproc
  31              		@ Volatile: function does not return.
  32              		@ args = 0, pretend = 0, frame = 0
  33              		@ frame_needed = 0, uses_anonymous_args = 0
  34              		@ link register save eliminated.
  35              	.L2:
  76:Core/Src/stm32l4xx_it.c ****   /* USER CODE BEGIN NonMaskableInt_IRQn 0 */
  77:Core/Src/stm32l4xx_it.c **** 
  78:Core/Src/stm32l4xx_it.c ****   /* USER CODE END NonMaskableInt_IRQn 0 */
  79:Core/Src/stm32l4xx_it.c ****   /* USER CODE BEGIN NonMaskableInt_IRQn 1 */
  80:Core/Src/stm32l4xx_it.c ****    while (1)
ARM GAS  C:\msys64\tmp\cc6TFu6e.s 			page 3


  36              		.loc 1 80 4 view .LVU1
  81:Core/Src/stm32l4xx_it.c ****   {
  82:Core/Src/stm32l4xx_it.c ****   }
  37              		.loc 1 82 3 view .LVU2
  80:Core/Src/stm32l4xx_it.c ****   {
  38              		.loc 1 80 10 view .LVU3
  39 0000 FEE7     		b	.L2
  40              		.cfi_endproc
  41              	.LFE384:
  43              		.section	.text.HardFault_Handler,"ax",%progbits
  44              		.align	1
  45              		.global	HardFault_Handler
  46              		.syntax unified
  47              		.thumb
  48              		.thumb_func
  50              	HardFault_Handler:
  51              	.LFB385:
  83:Core/Src/stm32l4xx_it.c ****   /* USER CODE END NonMaskableInt_IRQn 1 */
  84:Core/Src/stm32l4xx_it.c **** }
  85:Core/Src/stm32l4xx_it.c **** 
  86:Core/Src/stm32l4xx_it.c **** /**
  87:Core/Src/stm32l4xx_it.c ****   * @brief This function handles Hard fault interrupt.
  88:Core/Src/stm32l4xx_it.c ****   */
  89:Core/Src/stm32l4xx_it.c **** void HardFault_Handler(void)
  90:Core/Src/stm32l4xx_it.c **** {
  52              		.loc 1 90 1 view -0
  53              		.cfi_startproc
  54              		@ Volatile: function does not return.
  55              		@ args = 0, pretend = 0, frame = 0
  56              		@ frame_needed = 0, uses_anonymous_args = 0
  57              		@ link register save eliminated.
  58              	.L4:
  91:Core/Src/stm32l4xx_it.c ****   /* USER CODE BEGIN HardFault_IRQn 0 */
  92:Core/Src/stm32l4xx_it.c **** 
  93:Core/Src/stm32l4xx_it.c ****   /* USER CODE END HardFault_IRQn 0 */
  94:Core/Src/stm32l4xx_it.c ****   while (1)
  59              		.loc 1 94 3 view .LVU5
  95:Core/Src/stm32l4xx_it.c ****   {
  96:Core/Src/stm32l4xx_it.c ****     /* USER CODE BEGIN W1_HardFault_IRQn 0 */
  97:Core/Src/stm32l4xx_it.c ****     /* USER CODE END W1_HardFault_IRQn 0 */
  98:Core/Src/stm32l4xx_it.c ****   }
  60              		.loc 1 98 3 view .LVU6
  94:Core/Src/stm32l4xx_it.c ****   {
  61              		.loc 1 94 9 view .LVU7
  62 0000 FEE7     		b	.L4
  63              		.cfi_endproc
  64              	.LFE385:
  66              		.section	.text.MemManage_Handler,"ax",%progbits
  67              		.align	1
  68              		.global	MemManage_Handler
  69              		.syntax unified
  70              		.thumb
  71              		.thumb_func
  73              	MemManage_Handler:
  74              	.LFB386:
  99:Core/Src/stm32l4xx_it.c **** }
 100:Core/Src/stm32l4xx_it.c **** 
ARM GAS  C:\msys64\tmp\cc6TFu6e.s 			page 4


 101:Core/Src/stm32l4xx_it.c **** /**
 102:Core/Src/stm32l4xx_it.c ****   * @brief This function handles Memory management fault.
 103:Core/Src/stm32l4xx_it.c ****   */
 104:Core/Src/stm32l4xx_it.c **** void MemManage_Handler(void)
 105:Core/Src/stm32l4xx_it.c **** {
  75              		.loc 1 105 1 view -0
  76              		.cfi_startproc
  77              		@ Volatile: function does not return.
  78              		@ args = 0, pretend = 0, frame = 0
  79              		@ frame_needed = 0, uses_anonymous_args = 0
  80              		@ link register save eliminated.
  81              	.L6:
 106:Core/Src/stm32l4xx_it.c ****   /* USER CODE BEGIN MemoryManagement_IRQn 0 */
 107:Core/Src/stm32l4xx_it.c **** 
 108:Core/Src/stm32l4xx_it.c ****   /* USER CODE END MemoryManagement_IRQn 0 */
 109:Core/Src/stm32l4xx_it.c ****   while (1)
  82              		.loc 1 109 3 view .LVU9
 110:Core/Src/stm32l4xx_it.c ****   {
 111:Core/Src/stm32l4xx_it.c ****     /* USER CODE BEGIN W1_MemoryManagement_IRQn 0 */
 112:Core/Src/stm32l4xx_it.c ****     /* USER CODE END W1_MemoryManagement_IRQn 0 */
 113:Core/Src/stm32l4xx_it.c ****   }
  83              		.loc 1 113 3 view .LVU10
 109:Core/Src/stm32l4xx_it.c ****   {
  84              		.loc 1 109 9 view .LVU11
  85 0000 FEE7     		b	.L6
  86              		.cfi_endproc
  87              	.LFE386:
  89              		.section	.text.BusFault_Handler,"ax",%progbits
  90              		.align	1
  91              		.global	BusFault_Handler
  92              		.syntax unified
  93              		.thumb
  94              		.thumb_func
  96              	BusFault_Handler:
  97              	.LFB387:
 114:Core/Src/stm32l4xx_it.c **** }
 115:Core/Src/stm32l4xx_it.c **** 
 116:Core/Src/stm32l4xx_it.c **** /**
 117:Core/Src/stm32l4xx_it.c ****   * @brief This function handles Prefetch fault, memory access fault.
 118:Core/Src/stm32l4xx_it.c ****   */
 119:Core/Src/stm32l4xx_it.c **** void BusFault_Handler(void)
 120:Core/Src/stm32l4xx_it.c **** {
  98              		.loc 1 120 1 view -0
  99              		.cfi_startproc
 100              		@ Volatile: function does not return.
 101              		@ args = 0, pretend = 0, frame = 0
 102              		@ frame_needed = 0, uses_anonymous_args = 0
 103              		@ link register save eliminated.
 104              	.L8:
 121:Core/Src/stm32l4xx_it.c ****   /* USER CODE BEGIN BusFault_IRQn 0 */
 122:Core/Src/stm32l4xx_it.c **** 
 123:Core/Src/stm32l4xx_it.c ****   /* USER CODE END BusFault_IRQn 0 */
 124:Core/Src/stm32l4xx_it.c ****   while (1)
 105              		.loc 1 124 3 view .LVU13
 125:Core/Src/stm32l4xx_it.c ****   {
 126:Core/Src/stm32l4xx_it.c ****     /* USER CODE BEGIN W1_BusFault_IRQn 0 */
 127:Core/Src/stm32l4xx_it.c ****     /* USER CODE END W1_BusFault_IRQn 0 */
ARM GAS  C:\msys64\tmp\cc6TFu6e.s 			page 5


 128:Core/Src/stm32l4xx_it.c ****   }
 106              		.loc 1 128 3 view .LVU14
 124:Core/Src/stm32l4xx_it.c ****   {
 107              		.loc 1 124 9 view .LVU15
 108 0000 FEE7     		b	.L8
 109              		.cfi_endproc
 110              	.LFE387:
 112              		.section	.text.UsageFault_Handler,"ax",%progbits
 113              		.align	1
 114              		.global	UsageFault_Handler
 115              		.syntax unified
 116              		.thumb
 117              		.thumb_func
 119              	UsageFault_Handler:
 120              	.LFB388:
 129:Core/Src/stm32l4xx_it.c **** }
 130:Core/Src/stm32l4xx_it.c **** 
 131:Core/Src/stm32l4xx_it.c **** /**
 132:Core/Src/stm32l4xx_it.c ****   * @brief This function handles Undefined instruction or illegal state.
 133:Core/Src/stm32l4xx_it.c ****   */
 134:Core/Src/stm32l4xx_it.c **** void UsageFault_Handler(void)
 135:Core/Src/stm32l4xx_it.c **** {
 121              		.loc 1 135 1 view -0
 122              		.cfi_startproc
 123              		@ Volatile: function does not return.
 124              		@ args = 0, pretend = 0, frame = 0
 125              		@ frame_needed = 0, uses_anonymous_args = 0
 126              		@ link register save eliminated.
 127              	.L10:
 136:Core/Src/stm32l4xx_it.c ****   /* USER CODE BEGIN UsageFault_IRQn 0 */
 137:Core/Src/stm32l4xx_it.c **** 
 138:Core/Src/stm32l4xx_it.c ****   /* USER CODE END UsageFault_IRQn 0 */
 139:Core/Src/stm32l4xx_it.c ****   while (1)
 128              		.loc 1 139 3 view .LVU17
 140:Core/Src/stm32l4xx_it.c ****   {
 141:Core/Src/stm32l4xx_it.c ****     /* USER CODE BEGIN W1_UsageFault_IRQn 0 */
 142:Core/Src/stm32l4xx_it.c ****     /* USER CODE END W1_UsageFault_IRQn 0 */
 143:Core/Src/stm32l4xx_it.c ****   }
 129              		.loc 1 143 3 view .LVU18
 139:Core/Src/stm32l4xx_it.c ****   {
 130              		.loc 1 139 9 view .LVU19
 131 0000 FEE7     		b	.L10
 132              		.cfi_endproc
 133              	.LFE388:
 135              		.section	.text.SVC_Handler,"ax",%progbits
 136              		.align	1
 137              		.global	SVC_Handler
 138              		.syntax unified
 139              		.thumb
 140              		.thumb_func
 142              	SVC_Handler:
 143              	.LFB389:
 144:Core/Src/stm32l4xx_it.c **** }
 145:Core/Src/stm32l4xx_it.c **** 
 146:Core/Src/stm32l4xx_it.c **** /**
 147:Core/Src/stm32l4xx_it.c ****   * @brief This function handles System service call via SWI instruction.
 148:Core/Src/stm32l4xx_it.c ****   */
ARM GAS  C:\msys64\tmp\cc6TFu6e.s 			page 6


 149:Core/Src/stm32l4xx_it.c **** void SVC_Handler(void)
 150:Core/Src/stm32l4xx_it.c **** {
 144              		.loc 1 150 1 view -0
 145              		.cfi_startproc
 146              		@ args = 0, pretend = 0, frame = 0
 147              		@ frame_needed = 0, uses_anonymous_args = 0
 148              		@ link register save eliminated.
 151:Core/Src/stm32l4xx_it.c ****   /* USER CODE BEGIN SVCall_IRQn 0 */
 152:Core/Src/stm32l4xx_it.c **** 
 153:Core/Src/stm32l4xx_it.c ****   /* USER CODE END SVCall_IRQn 0 */
 154:Core/Src/stm32l4xx_it.c ****   /* USER CODE BEGIN SVCall_IRQn 1 */
 155:Core/Src/stm32l4xx_it.c **** 
 156:Core/Src/stm32l4xx_it.c ****   /* USER CODE END SVCall_IRQn 1 */
 157:Core/Src/stm32l4xx_it.c **** }
 149              		.loc 1 157 1 view .LVU21
 150 0000 7047     		bx	lr
 151              		.cfi_endproc
 152              	.LFE389:
 154              		.section	.text.DebugMon_Handler,"ax",%progbits
 155              		.align	1
 156              		.global	DebugMon_Handler
 157              		.syntax unified
 158              		.thumb
 159              		.thumb_func
 161              	DebugMon_Handler:
 162              	.LFB390:
 158:Core/Src/stm32l4xx_it.c **** 
 159:Core/Src/stm32l4xx_it.c **** /**
 160:Core/Src/stm32l4xx_it.c ****   * @brief This function handles Debug monitor.
 161:Core/Src/stm32l4xx_it.c ****   */
 162:Core/Src/stm32l4xx_it.c **** void DebugMon_Handler(void)
 163:Core/Src/stm32l4xx_it.c **** {
 163              		.loc 1 163 1 view -0
 164              		.cfi_startproc
 165              		@ args = 0, pretend = 0, frame = 0
 166              		@ frame_needed = 0, uses_anonymous_args = 0
 167              		@ link register save eliminated.
 164:Core/Src/stm32l4xx_it.c ****   /* USER CODE BEGIN DebugMonitor_IRQn 0 */
 165:Core/Src/stm32l4xx_it.c **** 
 166:Core/Src/stm32l4xx_it.c ****   /* USER CODE END DebugMonitor_IRQn 0 */
 167:Core/Src/stm32l4xx_it.c ****   /* USER CODE BEGIN DebugMonitor_IRQn 1 */
 168:Core/Src/stm32l4xx_it.c **** 
 169:Core/Src/stm32l4xx_it.c ****   /* USER CODE END DebugMonitor_IRQn 1 */
 170:Core/Src/stm32l4xx_it.c **** }
 168              		.loc 1 170 1 view .LVU23
 169 0000 7047     		bx	lr
 170              		.cfi_endproc
 171              	.LFE390:
 173              		.section	.text.PendSV_Handler,"ax",%progbits
 174              		.align	1
 175              		.global	PendSV_Handler
 176              		.syntax unified
 177              		.thumb
 178              		.thumb_func
 180              	PendSV_Handler:
 181              	.LFB391:
 171:Core/Src/stm32l4xx_it.c **** 
ARM GAS  C:\msys64\tmp\cc6TFu6e.s 			page 7


 172:Core/Src/stm32l4xx_it.c **** /**
 173:Core/Src/stm32l4xx_it.c ****   * @brief This function handles Pendable request for system service.
 174:Core/Src/stm32l4xx_it.c ****   */
 175:Core/Src/stm32l4xx_it.c **** void PendSV_Handler(void)
 176:Core/Src/stm32l4xx_it.c **** {
 182              		.loc 1 176 1 view -0
 183              		.cfi_startproc
 184              		@ args = 0, pretend = 0, frame = 0
 185              		@ frame_needed = 0, uses_anonymous_args = 0
 186              		@ link register save eliminated.
 177:Core/Src/stm32l4xx_it.c ****   /* USER CODE BEGIN PendSV_IRQn 0 */
 178:Core/Src/stm32l4xx_it.c **** 
 179:Core/Src/stm32l4xx_it.c ****   /* USER CODE END PendSV_IRQn 0 */
 180:Core/Src/stm32l4xx_it.c ****   /* USER CODE BEGIN PendSV_IRQn 1 */
 181:Core/Src/stm32l4xx_it.c **** 
 182:Core/Src/stm32l4xx_it.c ****   /* USER CODE END PendSV_IRQn 1 */
 183:Core/Src/stm32l4xx_it.c **** }
 187              		.loc 1 183 1 view .LVU25
 188 0000 7047     		bx	lr
 189              		.cfi_endproc
 190              	.LFE391:
 192              		.section	.text.SysTick_Handler,"ax",%progbits
 193              		.align	1
 194              		.global	SysTick_Handler
 195              		.syntax unified
 196              		.thumb
 197              		.thumb_func
 199              	SysTick_Handler:
 200              	.LFB392:
 184:Core/Src/stm32l4xx_it.c **** 
 185:Core/Src/stm32l4xx_it.c **** /**
 186:Core/Src/stm32l4xx_it.c ****   * @brief This function handles System tick timer.
 187:Core/Src/stm32l4xx_it.c ****   */
 188:Core/Src/stm32l4xx_it.c **** void SysTick_Handler(void)
 189:Core/Src/stm32l4xx_it.c **** {
 201              		.loc 1 189 1 view -0
 202              		.cfi_startproc
 203              		@ args = 0, pretend = 0, frame = 0
 204              		@ frame_needed = 0, uses_anonymous_args = 0
 205 0000 08B5     		push	{r3, lr}
 206              	.LCFI0:
 207              		.cfi_def_cfa_offset 8
 208              		.cfi_offset 3, -8
 209              		.cfi_offset 14, -4
 190:Core/Src/stm32l4xx_it.c ****   /* USER CODE BEGIN SysTick_IRQn 0 */
 191:Core/Src/stm32l4xx_it.c ****   if(Timer1 > 0)
 210              		.loc 1 191 3 view .LVU27
 211              		.loc 1 191 13 is_stmt 0 view .LVU28
 212 0002 074B     		ldr	r3, .L18
 213 0004 1B88     		ldrh	r3, [r3]
 214              		.loc 1 191 5 view .LVU29
 215 0006 13B1     		cbz	r3, .L15
 192:Core/Src/stm32l4xx_it.c ****     Timer1--;
 216              		.loc 1 192 5 is_stmt 1 view .LVU30
 217              		.loc 1 192 11 is_stmt 0 view .LVU31
 218 0008 013B     		subs	r3, r3, #1
 219 000a 054A     		ldr	r2, .L18
ARM GAS  C:\msys64\tmp\cc6TFu6e.s 			page 8


 220 000c 1380     		strh	r3, [r2]	@ movhi
 221              	.L15:
 193:Core/Src/stm32l4xx_it.c ****   if(Timer2 > 0)
 222              		.loc 1 193 3 is_stmt 1 view .LVU32
 223              		.loc 1 193 13 is_stmt 0 view .LVU33
 224 000e 054B     		ldr	r3, .L18+4
 225 0010 1B88     		ldrh	r3, [r3]
 226              		.loc 1 193 5 view .LVU34
 227 0012 13B1     		cbz	r3, .L16
 194:Core/Src/stm32l4xx_it.c ****     Timer2--;
 228              		.loc 1 194 5 is_stmt 1 view .LVU35
 229              		.loc 1 194 11 is_stmt 0 view .LVU36
 230 0014 013B     		subs	r3, r3, #1
 231 0016 034A     		ldr	r2, .L18+4
 232 0018 1380     		strh	r3, [r2]	@ movhi
 233              	.L16:
 195:Core/Src/stm32l4xx_it.c ****   /* USER CODE END SysTick_IRQn 0 */
 196:Core/Src/stm32l4xx_it.c ****   HAL_IncTick();
 234              		.loc 1 196 3 is_stmt 1 view .LVU37
 235 001a FFF7FEFF 		bl	HAL_IncTick
 236              	.LVL0:
 197:Core/Src/stm32l4xx_it.c ****   /* USER CODE BEGIN SysTick_IRQn 1 */
 198:Core/Src/stm32l4xx_it.c **** 
 199:Core/Src/stm32l4xx_it.c ****   /* USER CODE END SysTick_IRQn 1 */
 200:Core/Src/stm32l4xx_it.c **** }
 237              		.loc 1 200 1 is_stmt 0 view .LVU38
 238 001e 08BD     		pop	{r3, pc}
 239              	.L19:
 240              		.align	2
 241              	.L18:
 242 0020 00000000 		.word	Timer1
 243 0024 00000000 		.word	Timer2
 244              		.cfi_endproc
 245              	.LFE392:
 247              		.section	.text.EXTI4_IRQHandler,"ax",%progbits
 248              		.align	1
 249              		.global	EXTI4_IRQHandler
 250              		.syntax unified
 251              		.thumb
 252              		.thumb_func
 254              	EXTI4_IRQHandler:
 255              	.LFB393:
 201:Core/Src/stm32l4xx_it.c **** 
 202:Core/Src/stm32l4xx_it.c **** /******************************************************************************/
 203:Core/Src/stm32l4xx_it.c **** /* STM32L4xx Peripheral Interrupt Handlers                                    */
 204:Core/Src/stm32l4xx_it.c **** /* Add here the Interrupt Handlers for the used peripherals.                  */
 205:Core/Src/stm32l4xx_it.c **** /* For the available peripheral interrupt handler names,                      */
 206:Core/Src/stm32l4xx_it.c **** /* please refer to the startup file (startup_stm32l4xx.s).                    */
 207:Core/Src/stm32l4xx_it.c **** /******************************************************************************/
 208:Core/Src/stm32l4xx_it.c **** 
 209:Core/Src/stm32l4xx_it.c **** /**
 210:Core/Src/stm32l4xx_it.c ****   * @brief This function handles EXTI line4 interrupt.
 211:Core/Src/stm32l4xx_it.c ****   */
 212:Core/Src/stm32l4xx_it.c **** void EXTI4_IRQHandler(void)
 213:Core/Src/stm32l4xx_it.c **** {
 256              		.loc 1 213 1 is_stmt 1 view -0
 257              		.cfi_startproc
ARM GAS  C:\msys64\tmp\cc6TFu6e.s 			page 9


 258              		@ args = 0, pretend = 0, frame = 0
 259              		@ frame_needed = 0, uses_anonymous_args = 0
 260 0000 08B5     		push	{r3, lr}
 261              	.LCFI1:
 262              		.cfi_def_cfa_offset 8
 263              		.cfi_offset 3, -8
 264              		.cfi_offset 14, -4
 214:Core/Src/stm32l4xx_it.c ****   /* USER CODE BEGIN EXTI4_IRQn 0 */
 215:Core/Src/stm32l4xx_it.c ****   /* This ISR is triggered by the DS3231. It basically triggers a full sensor read
 216:Core/Src/stm32l4xx_it.c ****   and position/altitude sweep.*/
 217:Core/Src/stm32l4xx_it.c **** 
 218:Core/Src/stm32l4xx_it.c ****   switch (flightState) {
 265              		.loc 1 218 3 view .LVU40
 219:Core/Src/stm32l4xx_it.c ****     case PREFLIGHT:
 220:Core/Src/stm32l4xx_it.c ****       break;
 221:Core/Src/stm32l4xx_it.c ****     case TAKEOFF:
 222:Core/Src/stm32l4xx_it.c ****       break;
 223:Core/Src/stm32l4xx_it.c ****     case ASCENT:
 224:Core/Src/stm32l4xx_it.c ****       break;
 225:Core/Src/stm32l4xx_it.c ****     case CRUISE:
 226:Core/Src/stm32l4xx_it.c ****       break;
 227:Core/Src/stm32l4xx_it.c ****     case DESCENT:
 228:Core/Src/stm32l4xx_it.c ****       break;
 229:Core/Src/stm32l4xx_it.c ****     case LANDING:
 230:Core/Src/stm32l4xx_it.c ****       break;
 231:Core/Src/stm32l4xx_it.c ****     case RECOVERY:
 232:Core/Src/stm32l4xx_it.c ****       break;
 233:Core/Src/stm32l4xx_it.c ****     default:
 234:Core/Src/stm32l4xx_it.c ****       break;
 266              		.loc 1 234 7 view .LVU41
 235:Core/Src/stm32l4xx_it.c ****   }
 236:Core/Src/stm32l4xx_it.c **** 
 237:Core/Src/stm32l4xx_it.c **** 
 238:Core/Src/stm32l4xx_it.c ****   /* USER CODE END EXTI4_IRQn 0 */
 239:Core/Src/stm32l4xx_it.c ****   HAL_GPIO_EXTI_IRQHandler(DS3231_INT_PIN_Pin);
 267              		.loc 1 239 3 view .LVU42
 268 0002 1020     		movs	r0, #16
 269 0004 FFF7FEFF 		bl	HAL_GPIO_EXTI_IRQHandler
 270              	.LVL1:
 240:Core/Src/stm32l4xx_it.c ****   /* USER CODE BEGIN EXTI4_IRQn 1 */
 241:Core/Src/stm32l4xx_it.c **** 
 242:Core/Src/stm32l4xx_it.c ****   /* USER CODE END EXTI4_IRQn 1 */
 243:Core/Src/stm32l4xx_it.c **** }
 271              		.loc 1 243 1 is_stmt 0 view .LVU43
 272 0008 08BD     		pop	{r3, pc}
 273              		.cfi_endproc
 274              	.LFE393:
 276              		.section	.text.ADC1_IRQHandler,"ax",%progbits
 277              		.align	1
 278              		.global	ADC1_IRQHandler
 279              		.syntax unified
 280              		.thumb
 281              		.thumb_func
 283              	ADC1_IRQHandler:
 284              	.LFB394:
 244:Core/Src/stm32l4xx_it.c **** 
 245:Core/Src/stm32l4xx_it.c **** /**
ARM GAS  C:\msys64\tmp\cc6TFu6e.s 			page 10


 246:Core/Src/stm32l4xx_it.c ****   * @brief This function handles ADC1 global interrupt.
 247:Core/Src/stm32l4xx_it.c ****   */
 248:Core/Src/stm32l4xx_it.c **** void ADC1_IRQHandler(void)
 249:Core/Src/stm32l4xx_it.c **** {
 285              		.loc 1 249 1 is_stmt 1 view -0
 286              		.cfi_startproc
 287              		@ args = 0, pretend = 0, frame = 0
 288              		@ frame_needed = 0, uses_anonymous_args = 0
 289 0000 08B5     		push	{r3, lr}
 290              	.LCFI2:
 291              		.cfi_def_cfa_offset 8
 292              		.cfi_offset 3, -8
 293              		.cfi_offset 14, -4
 250:Core/Src/stm32l4xx_it.c ****   /* USER CODE BEGIN ADC1_IRQn 0 */
 251:Core/Src/stm32l4xx_it.c ****   
 252:Core/Src/stm32l4xx_it.c ****   /* USER CODE END ADC1_IRQn 0 */
 253:Core/Src/stm32l4xx_it.c ****   HAL_ADC_IRQHandler(&hadc1);
 294              		.loc 1 253 3 view .LVU45
 295 0002 0248     		ldr	r0, .L24
 296 0004 FFF7FEFF 		bl	HAL_ADC_IRQHandler
 297              	.LVL2:
 254:Core/Src/stm32l4xx_it.c ****   /* USER CODE BEGIN ADC1_IRQn 1 */
 255:Core/Src/stm32l4xx_it.c **** 
 256:Core/Src/stm32l4xx_it.c ****   /* USER CODE END ADC1_IRQn 1 */
 257:Core/Src/stm32l4xx_it.c **** }
 298              		.loc 1 257 1 is_stmt 0 view .LVU46
 299 0008 08BD     		pop	{r3, pc}
 300              	.L25:
 301 000a 00BF     		.align	2
 302              	.L24:
 303 000c 00000000 		.word	hadc1
 304              		.cfi_endproc
 305              	.LFE394:
 307              		.section	.text.I2C1_EV_IRQHandler,"ax",%progbits
 308              		.align	1
 309              		.global	I2C1_EV_IRQHandler
 310              		.syntax unified
 311              		.thumb
 312              		.thumb_func
 314              	I2C1_EV_IRQHandler:
 315              	.LFB395:
 258:Core/Src/stm32l4xx_it.c **** 
 259:Core/Src/stm32l4xx_it.c **** /**
 260:Core/Src/stm32l4xx_it.c ****   * @brief This function handles I2C1 event interrupt.
 261:Core/Src/stm32l4xx_it.c ****   */
 262:Core/Src/stm32l4xx_it.c **** void I2C1_EV_IRQHandler(void)
 263:Core/Src/stm32l4xx_it.c **** {
 316              		.loc 1 263 1 is_stmt 1 view -0
 317              		.cfi_startproc
 318              		@ args = 0, pretend = 0, frame = 0
 319              		@ frame_needed = 0, uses_anonymous_args = 0
 320 0000 08B5     		push	{r3, lr}
 321              	.LCFI3:
 322              		.cfi_def_cfa_offset 8
 323              		.cfi_offset 3, -8
 324              		.cfi_offset 14, -4
 264:Core/Src/stm32l4xx_it.c ****   /* USER CODE BEGIN I2C1_EV_IRQn 0 */
ARM GAS  C:\msys64\tmp\cc6TFu6e.s 			page 11


 265:Core/Src/stm32l4xx_it.c **** 
 266:Core/Src/stm32l4xx_it.c ****   /* USER CODE END I2C1_EV_IRQn 0 */
 267:Core/Src/stm32l4xx_it.c ****   HAL_I2C_EV_IRQHandler(&hi2c1);
 325              		.loc 1 267 3 view .LVU48
 326 0002 0248     		ldr	r0, .L28
 327 0004 FFF7FEFF 		bl	HAL_I2C_EV_IRQHandler
 328              	.LVL3:
 268:Core/Src/stm32l4xx_it.c ****   /* USER CODE BEGIN I2C1_EV_IRQn 1 */
 269:Core/Src/stm32l4xx_it.c **** 
 270:Core/Src/stm32l4xx_it.c ****   /* USER CODE END I2C1_EV_IRQn 1 */
 271:Core/Src/stm32l4xx_it.c **** }
 329              		.loc 1 271 1 is_stmt 0 view .LVU49
 330 0008 08BD     		pop	{r3, pc}
 331              	.L29:
 332 000a 00BF     		.align	2
 333              	.L28:
 334 000c 00000000 		.word	hi2c1
 335              		.cfi_endproc
 336              	.LFE395:
 338              		.section	.text.I2C1_ER_IRQHandler,"ax",%progbits
 339              		.align	1
 340              		.global	I2C1_ER_IRQHandler
 341              		.syntax unified
 342              		.thumb
 343              		.thumb_func
 345              	I2C1_ER_IRQHandler:
 346              	.LFB396:
 272:Core/Src/stm32l4xx_it.c **** 
 273:Core/Src/stm32l4xx_it.c **** /**
 274:Core/Src/stm32l4xx_it.c ****   * @brief This function handles I2C1 error interrupt.
 275:Core/Src/stm32l4xx_it.c ****   */
 276:Core/Src/stm32l4xx_it.c **** void I2C1_ER_IRQHandler(void)
 277:Core/Src/stm32l4xx_it.c **** {
 347              		.loc 1 277 1 is_stmt 1 view -0
 348              		.cfi_startproc
 349              		@ args = 0, pretend = 0, frame = 0
 350              		@ frame_needed = 0, uses_anonymous_args = 0
 351 0000 08B5     		push	{r3, lr}
 352              	.LCFI4:
 353              		.cfi_def_cfa_offset 8
 354              		.cfi_offset 3, -8
 355              		.cfi_offset 14, -4
 278:Core/Src/stm32l4xx_it.c ****   /* USER CODE BEGIN I2C1_ER_IRQn 0 */
 279:Core/Src/stm32l4xx_it.c **** 
 280:Core/Src/stm32l4xx_it.c ****   /* USER CODE END I2C1_ER_IRQn 0 */
 281:Core/Src/stm32l4xx_it.c ****   HAL_I2C_ER_IRQHandler(&hi2c1);
 356              		.loc 1 281 3 view .LVU51
 357 0002 0248     		ldr	r0, .L32
 358 0004 FFF7FEFF 		bl	HAL_I2C_ER_IRQHandler
 359              	.LVL4:
 282:Core/Src/stm32l4xx_it.c ****   /* USER CODE BEGIN I2C1_ER_IRQn 1 */
 283:Core/Src/stm32l4xx_it.c **** 
 284:Core/Src/stm32l4xx_it.c ****   /* USER CODE END I2C1_ER_IRQn 1 */
 285:Core/Src/stm32l4xx_it.c **** }
 360              		.loc 1 285 1 is_stmt 0 view .LVU52
 361 0008 08BD     		pop	{r3, pc}
 362              	.L33:
ARM GAS  C:\msys64\tmp\cc6TFu6e.s 			page 12


 363 000a 00BF     		.align	2
 364              	.L32:
 365 000c 00000000 		.word	hi2c1
 366              		.cfi_endproc
 367              	.LFE396:
 369              		.section	.text.I2C2_EV_IRQHandler,"ax",%progbits
 370              		.align	1
 371              		.global	I2C2_EV_IRQHandler
 372              		.syntax unified
 373              		.thumb
 374              		.thumb_func
 376              	I2C2_EV_IRQHandler:
 377              	.LFB397:
 286:Core/Src/stm32l4xx_it.c **** 
 287:Core/Src/stm32l4xx_it.c **** /**
 288:Core/Src/stm32l4xx_it.c ****   * @brief This function handles I2C2 event interrupt.
 289:Core/Src/stm32l4xx_it.c ****   */
 290:Core/Src/stm32l4xx_it.c **** void I2C2_EV_IRQHandler(void)
 291:Core/Src/stm32l4xx_it.c **** {
 378              		.loc 1 291 1 is_stmt 1 view -0
 379              		.cfi_startproc
 380              		@ args = 0, pretend = 0, frame = 0
 381              		@ frame_needed = 0, uses_anonymous_args = 0
 382 0000 08B5     		push	{r3, lr}
 383              	.LCFI5:
 384              		.cfi_def_cfa_offset 8
 385              		.cfi_offset 3, -8
 386              		.cfi_offset 14, -4
 292:Core/Src/stm32l4xx_it.c ****   /* USER CODE BEGIN I2C2_EV_IRQn 0 */
 293:Core/Src/stm32l4xx_it.c **** 
 294:Core/Src/stm32l4xx_it.c ****   /* USER CODE END I2C2_EV_IRQn 0 */
 295:Core/Src/stm32l4xx_it.c ****   HAL_I2C_EV_IRQHandler(&hi2c2);
 387              		.loc 1 295 3 view .LVU54
 388 0002 0248     		ldr	r0, .L36
 389 0004 FFF7FEFF 		bl	HAL_I2C_EV_IRQHandler
 390              	.LVL5:
 296:Core/Src/stm32l4xx_it.c ****   /* USER CODE BEGIN I2C2_EV_IRQn 1 */
 297:Core/Src/stm32l4xx_it.c **** 
 298:Core/Src/stm32l4xx_it.c ****   /* USER CODE END I2C2_EV_IRQn 1 */
 299:Core/Src/stm32l4xx_it.c **** }
 391              		.loc 1 299 1 is_stmt 0 view .LVU55
 392 0008 08BD     		pop	{r3, pc}
 393              	.L37:
 394 000a 00BF     		.align	2
 395              	.L36:
 396 000c 00000000 		.word	hi2c2
 397              		.cfi_endproc
 398              	.LFE397:
 400              		.section	.text.I2C2_ER_IRQHandler,"ax",%progbits
 401              		.align	1
 402              		.global	I2C2_ER_IRQHandler
 403              		.syntax unified
 404              		.thumb
 405              		.thumb_func
 407              	I2C2_ER_IRQHandler:
 408              	.LFB398:
 300:Core/Src/stm32l4xx_it.c **** 
ARM GAS  C:\msys64\tmp\cc6TFu6e.s 			page 13


 301:Core/Src/stm32l4xx_it.c **** /**
 302:Core/Src/stm32l4xx_it.c ****   * @brief This function handles I2C2 error interrupt.
 303:Core/Src/stm32l4xx_it.c ****   */
 304:Core/Src/stm32l4xx_it.c **** void I2C2_ER_IRQHandler(void)
 305:Core/Src/stm32l4xx_it.c **** {
 409              		.loc 1 305 1 is_stmt 1 view -0
 410              		.cfi_startproc
 411              		@ args = 0, pretend = 0, frame = 0
 412              		@ frame_needed = 0, uses_anonymous_args = 0
 413 0000 08B5     		push	{r3, lr}
 414              	.LCFI6:
 415              		.cfi_def_cfa_offset 8
 416              		.cfi_offset 3, -8
 417              		.cfi_offset 14, -4
 306:Core/Src/stm32l4xx_it.c ****   /* USER CODE BEGIN I2C2_ER_IRQn 0 */
 307:Core/Src/stm32l4xx_it.c **** 
 308:Core/Src/stm32l4xx_it.c ****   /* USER CODE END I2C2_ER_IRQn 0 */
 309:Core/Src/stm32l4xx_it.c ****   HAL_I2C_ER_IRQHandler(&hi2c2);
 418              		.loc 1 309 3 view .LVU57
 419 0002 0248     		ldr	r0, .L40
 420 0004 FFF7FEFF 		bl	HAL_I2C_ER_IRQHandler
 421              	.LVL6:
 310:Core/Src/stm32l4xx_it.c ****   /* USER CODE BEGIN I2C2_ER_IRQn 1 */
 311:Core/Src/stm32l4xx_it.c **** 
 312:Core/Src/stm32l4xx_it.c ****   /* USER CODE END I2C2_ER_IRQn 1 */
 313:Core/Src/stm32l4xx_it.c **** }
 422              		.loc 1 313 1 is_stmt 0 view .LVU58
 423 0008 08BD     		pop	{r3, pc}
 424              	.L41:
 425 000a 00BF     		.align	2
 426              	.L40:
 427 000c 00000000 		.word	hi2c2
 428              		.cfi_endproc
 429              	.LFE398:
 431              		.section	.text.SPI1_IRQHandler,"ax",%progbits
 432              		.align	1
 433              		.global	SPI1_IRQHandler
 434              		.syntax unified
 435              		.thumb
 436              		.thumb_func
 438              	SPI1_IRQHandler:
 439              	.LFB399:
 314:Core/Src/stm32l4xx_it.c **** 
 315:Core/Src/stm32l4xx_it.c **** /**
 316:Core/Src/stm32l4xx_it.c ****   * @brief This function handles SPI1 global interrupt.
 317:Core/Src/stm32l4xx_it.c ****   */
 318:Core/Src/stm32l4xx_it.c **** void SPI1_IRQHandler(void)
 319:Core/Src/stm32l4xx_it.c **** {
 440              		.loc 1 319 1 is_stmt 1 view -0
 441              		.cfi_startproc
 442              		@ args = 0, pretend = 0, frame = 0
 443              		@ frame_needed = 0, uses_anonymous_args = 0
 444 0000 08B5     		push	{r3, lr}
 445              	.LCFI7:
 446              		.cfi_def_cfa_offset 8
 447              		.cfi_offset 3, -8
 448              		.cfi_offset 14, -4
ARM GAS  C:\msys64\tmp\cc6TFu6e.s 			page 14


 320:Core/Src/stm32l4xx_it.c ****   /* USER CODE BEGIN SPI1_IRQn 0 */
 321:Core/Src/stm32l4xx_it.c **** 
 322:Core/Src/stm32l4xx_it.c ****   /* USER CODE END SPI1_IRQn 0 */
 323:Core/Src/stm32l4xx_it.c ****   HAL_SPI_IRQHandler(&hspi1);
 449              		.loc 1 323 3 view .LVU60
 450 0002 0248     		ldr	r0, .L44
 451 0004 FFF7FEFF 		bl	HAL_SPI_IRQHandler
 452              	.LVL7:
 324:Core/Src/stm32l4xx_it.c ****   /* USER CODE BEGIN SPI1_IRQn 1 */
 325:Core/Src/stm32l4xx_it.c **** 
 326:Core/Src/stm32l4xx_it.c ****   /* USER CODE END SPI1_IRQn 1 */
 327:Core/Src/stm32l4xx_it.c **** }
 453              		.loc 1 327 1 is_stmt 0 view .LVU61
 454 0008 08BD     		pop	{r3, pc}
 455              	.L45:
 456 000a 00BF     		.align	2
 457              	.L44:
 458 000c 00000000 		.word	hspi1
 459              		.cfi_endproc
 460              	.LFE399:
 462              		.section	.text.USART1_IRQHandler,"ax",%progbits
 463              		.align	1
 464              		.global	USART1_IRQHandler
 465              		.syntax unified
 466              		.thumb
 467              		.thumb_func
 469              	USART1_IRQHandler:
 470              	.LFB400:
 328:Core/Src/stm32l4xx_it.c **** 
 329:Core/Src/stm32l4xx_it.c **** /**
 330:Core/Src/stm32l4xx_it.c ****   * @brief This function handles USART1 global interrupt.
 331:Core/Src/stm32l4xx_it.c ****   */
 332:Core/Src/stm32l4xx_it.c **** void USART1_IRQHandler(void)
 333:Core/Src/stm32l4xx_it.c **** {
 471              		.loc 1 333 1 is_stmt 1 view -0
 472              		.cfi_startproc
 473              		@ args = 0, pretend = 0, frame = 0
 474              		@ frame_needed = 0, uses_anonymous_args = 0
 475 0000 08B5     		push	{r3, lr}
 476              	.LCFI8:
 477              		.cfi_def_cfa_offset 8
 478              		.cfi_offset 3, -8
 479              		.cfi_offset 14, -4
 334:Core/Src/stm32l4xx_it.c ****   /* USER CODE BEGIN USART1_IRQn 0 */
 335:Core/Src/stm32l4xx_it.c **** 
 336:Core/Src/stm32l4xx_it.c ****   /* USER CODE END USART1_IRQn 0 */
 337:Core/Src/stm32l4xx_it.c ****   HAL_UART_IRQHandler(&huart1);
 480              		.loc 1 337 3 view .LVU63
 481 0002 0248     		ldr	r0, .L48
 482 0004 FFF7FEFF 		bl	HAL_UART_IRQHandler
 483              	.LVL8:
 338:Core/Src/stm32l4xx_it.c ****   /* USER CODE BEGIN USART1_IRQn 1 */
 339:Core/Src/stm32l4xx_it.c **** 
 340:Core/Src/stm32l4xx_it.c ****   /* USER CODE END USART1_IRQn 1 */
 341:Core/Src/stm32l4xx_it.c **** }
 484              		.loc 1 341 1 is_stmt 0 view .LVU64
 485 0008 08BD     		pop	{r3, pc}
ARM GAS  C:\msys64\tmp\cc6TFu6e.s 			page 15


 486              	.L49:
 487 000a 00BF     		.align	2
 488              	.L48:
 489 000c 00000000 		.word	huart1
 490              		.cfi_endproc
 491              	.LFE400:
 493              		.section	.text.USART2_IRQHandler,"ax",%progbits
 494              		.align	1
 495              		.global	USART2_IRQHandler
 496              		.syntax unified
 497              		.thumb
 498              		.thumb_func
 500              	USART2_IRQHandler:
 501              	.LFB401:
 342:Core/Src/stm32l4xx_it.c **** 
 343:Core/Src/stm32l4xx_it.c **** /**
 344:Core/Src/stm32l4xx_it.c ****   * @brief This function handles USART2 global interrupt.
 345:Core/Src/stm32l4xx_it.c ****   */
 346:Core/Src/stm32l4xx_it.c **** void USART2_IRQHandler(void)
 347:Core/Src/stm32l4xx_it.c **** {
 502              		.loc 1 347 1 is_stmt 1 view -0
 503              		.cfi_startproc
 504              		@ args = 0, pretend = 0, frame = 0
 505              		@ frame_needed = 0, uses_anonymous_args = 0
 506 0000 08B5     		push	{r3, lr}
 507              	.LCFI9:
 508              		.cfi_def_cfa_offset 8
 509              		.cfi_offset 3, -8
 510              		.cfi_offset 14, -4
 348:Core/Src/stm32l4xx_it.c ****   /* USER CODE BEGIN USART2_IRQn 0 */
 349:Core/Src/stm32l4xx_it.c **** 
 350:Core/Src/stm32l4xx_it.c ****   /* USER CODE END USART2_IRQn 0 */
 351:Core/Src/stm32l4xx_it.c ****   HAL_UART_IRQHandler(&huart2);
 511              		.loc 1 351 3 view .LVU66
 512 0002 0248     		ldr	r0, .L52
 513 0004 FFF7FEFF 		bl	HAL_UART_IRQHandler
 514              	.LVL9:
 352:Core/Src/stm32l4xx_it.c ****   /* USER CODE BEGIN USART2_IRQn 1 */
 353:Core/Src/stm32l4xx_it.c **** 
 354:Core/Src/stm32l4xx_it.c ****   /* USER CODE END USART2_IRQn 1 */
 355:Core/Src/stm32l4xx_it.c **** }
 515              		.loc 1 355 1 is_stmt 0 view .LVU67
 516 0008 08BD     		pop	{r3, pc}
 517              	.L53:
 518 000a 00BF     		.align	2
 519              	.L52:
 520 000c 00000000 		.word	huart2
 521              		.cfi_endproc
 522              	.LFE401:
 524              		.global	flightState
 525              		.section	.bss.flightState,"aw",%nobits
 528              	flightState:
 529 0000 00       		.space	1
 530              		.text
 531              	.Letext0:
 532              		.file 2 "C:/msys64/mingw64/arm-none-eabi/include/machine/_default_types.h"
 533              		.file 3 "C:/msys64/mingw64/arm-none-eabi/include/sys/_stdint.h"
ARM GAS  C:\msys64\tmp\cc6TFu6e.s 			page 16


 534              		.file 4 "Drivers/CMSIS/Device/ST/STM32L4xx/Include/stm32l433xx.h"
 535              		.file 5 "Drivers/CMSIS/Device/ST/STM32L4xx/Include/stm32l4xx.h"
 536              		.file 6 "Drivers/STM32L4xx_HAL_Driver/Inc/stm32l4xx_hal_def.h"
 537              		.file 7 "Drivers/STM32L4xx_HAL_Driver/Inc/stm32l4xx_hal_dma.h"
 538              		.file 8 "Drivers/STM32L4xx_HAL_Driver/Inc/stm32l4xx_hal_adc.h"
 539              		.file 9 "Drivers/STM32L4xx_HAL_Driver/Inc/stm32l4xx_hal_i2c.h"
 540              		.file 10 "Drivers/STM32L4xx_HAL_Driver/Inc/stm32l4xx_hal_spi.h"
 541              		.file 11 "Drivers/STM32L4xx_HAL_Driver/Inc/stm32l4xx_hal_uart.h"
 542              		.file 12 "Core/Inc/main.h"
 543              		.file 13 "Core/Inc/FATFS_SD.h"
 544              		.file 14 "Drivers/STM32L4xx_HAL_Driver/Inc/stm32l4xx_hal_gpio.h"
 545              		.file 15 "Drivers/STM32L4xx_HAL_Driver/Inc/stm32l4xx_ll_dma.h"
 546              		.file 16 "Drivers/STM32L4xx_HAL_Driver/Inc/stm32l4xx_hal.h"
ARM GAS  C:\msys64\tmp\cc6TFu6e.s 			page 17

